; Function Attrs: mustprogress nofree norecurse nosync nounwind willreturn memory(read, inaccessiblemem: none) uwtable
define dso_local i64 @brin_minmax_multi_distance_macaddr8(ptr noundef readonly captures(none) %0) local_unnamed_addr #4 {
  %2 = getelementptr inbounds nuw i8, ptr %0, i64 32
  %3 = load i64, ptr %2, align 8
  %4 = inttoptr i64 %3 to ptr
  %5 = getelementptr inbounds nuw i8, ptr %0, i64 48
  %6 = load i64, ptr %5, align 8
  %7 = inttoptr i64 %6 to ptr
  %8 = getelementptr inbounds nuw i8, ptr %7, i64 7
  %9 = load i8, ptr %8, align 1
  %10 = uitofp i8 %9 to double
  %11 = getelementptr inbounds nuw i8, ptr %4, i64 7
  %12 = load i8, ptr %11, align 1
  %13 = uitofp i8 %12 to double
  %14 = fsub double %10, %13
  %15 = fmul double %14, 3.906250e-03
  %16 = getelementptr inbounds nuw i8, ptr %7, i64 6
  %17 = load i8, ptr %16, align 1
  %18 = uitofp i8 %17 to double
  %19 = getelementptr inbounds nuw i8, ptr %4, i64 6
  %20 = load i8, ptr %19, align 1
  %21 = uitofp i8 %20 to double
  %22 = fsub double %18, %21
  %23 = fadd double %15, %22
  %24 = fmul double %23, 3.906250e-03
  %25 = getelementptr inbounds nuw i8, ptr %7, i64 5
  %26 = load i8, ptr %25, align 1
  %27 = uitofp i8 %26 to double
  %28 = getelementptr inbounds nuw i8, ptr %4, i64 5
  %29 = load i8, ptr %28, align 1
  %30 = uitofp i8 %29 to double
  %31 = fsub double %27, %30
  %32 = fadd double %24, %31
  %33 = fmul double %32, 3.906250e-03
  %34 = getelementptr inbounds nuw i8, ptr %7, i64 4
  %35 = load i8, ptr %34, align 1
  %36 = uitofp i8 %35 to double
  %37 = getelementptr inbounds nuw i8, ptr %4, i64 4
  %38 = load i8, ptr %37, align 1
  %39 = uitofp i8 %38 to double
  %40 = fsub double %36, %39
  %41 = fadd double %33, %40
  %42 = fmul double %41, 3.906250e-03
  %43 = getelementptr inbounds nuw i8, ptr %7, i64 3
  %44 = load i8, ptr %43, align 1
  %45 = uitofp i8 %44 to double
  %46 = getelementptr inbounds nuw i8, ptr %4, i64 3
  %47 = load i8, ptr %46, align 1
  %48 = uitofp i8 %47 to double
  %49 = fsub double %45, %48
  %50 = fadd double %42, %49
  %51 = fmul double %50, 3.906250e-03
  %52 = getelementptr inbounds nuw i8, ptr %7, i64 2
  %53 = load i8, ptr %52, align 1
  %54 = uitofp i8 %53 to double
  %55 = getelementptr inbounds nuw i8, ptr %4, i64 2
  %56 = load i8, ptr %55, align 1
  %57 = uitofp i8 %56 to double
  %58 = fsub double %54, %57
  %59 = fadd double %51, %58
  %60 = fmul double %59, 3.906250e-03
  %61 = getelementptr inbounds nuw i8, ptr %7, i64 1
  %62 = load i8, ptr %61, align 1
  %63 = uitofp i8 %62 to double
  %64 = getelementptr inbounds nuw i8, ptr %4, i64 1
  %65 = load i8, ptr %64, align 1
  %66 = uitofp i8 %65 to double
  %67 = fsub double %63, %66
  %68 = fadd double %60, %67
  %69 = fmul double %68, 3.906250e-03
  %70 = load i8, ptr %7, align 1
  %71 = uitofp i8 %70 to double
  %72 = load i8, ptr %4, align 1
  %73 = uitofp i8 %72 to double
  %74 = fsub double %71, %73
  %75 = fadd double %69, %74
  %76 = fmul double %75, 3.906250e-03
  %77 = bitcast double %76 to i64
  ret i64 %77
}